target datalayout = "e-m:e-p270:32:32-p271:32:32-p272:64:64-i64:64-i128:128-f80:128-n8:16:32:64-S128"
target triple = "x86_64-pc-linux-gnu"

%struct.CTState = type { ptr, i32, i32, ptr, ptr, ptr, %struct.CCallback, [128 x i16] }
%struct.CCallback = type { [8 x %union.FPRCBArg], [8 x i64], ptr, ptr, ptr, i32, i32, i32 }
%union.FPRCBArg = type { double }
%struct.CType = type { i32, i32, i16, i16, %struct.GCRef }
%struct.GCRef = type { i64 }

; Function Attrs: nounwind uwtable
define hidden i32 @lj_ctype_new(ptr noundef %0, ptr noundef %1) #0 {
  %3 = alloca ptr, align 8
  %4 = alloca ptr, align 8
  %5 = alloca i32, align 4
  %6 = alloca ptr, align 8
  store ptr %0, ptr %3, align 8, !tbaa !4
  store ptr %1, ptr %4, align 8, !tbaa !9
  call void @llvm.lifetime.start.p0(i64 4, ptr %5) #8
  %7 = load ptr, ptr %3, align 8, !tbaa !4
  %8 = getelementptr inbounds nuw %struct.CTState, ptr %7, i32 0, i32 1
  %9 = load i32, ptr %8, align 8, !tbaa !11
  store i32 %9, ptr %5, align 4, !tbaa !21
  call void @llvm.lifetime.start.p0(i64 8, ptr %6) #8
  %10 = load i32, ptr %5, align 4, !tbaa !21
  %11 = load ptr, ptr %3, align 8, !tbaa !4
  %12 = getelementptr inbounds nuw %struct.CTState, ptr %11, i32 0, i32 2
  %13 = load i32, ptr %12, align 4, !tbaa !22
  %14 = icmp uge i32 %10, %13
  %15 = xor i1 %14, true
  %16 = xor i1 %15, true
  %17 = zext i1 %16 to i32
  %18 = sext i32 %17 to i64
  %19 = call i64 @llvm.expect.i64(i64 %18, i64 0)
  %20 = icmp ne i64 %19, 0
  br i1 %20, label %21, label %40

21:                                               ; preds = %2
  %22 = load i32, ptr %5, align 4, !tbaa !21
  %23 = icmp uge i32 %22, 65536
  br i1 %23, label %24, label %28

24:                                               ; preds = %21
  %25 = load ptr, ptr %3, align 8, !tbaa !4
  %26 = getelementptr inbounds nuw %struct.CTState, ptr %25, i32 0, i32 3
  %27 = load ptr, ptr %26, align 8, !tbaa !23
  call void @lj_err_msg(ptr noundef %27, i32 noundef 139) #9
  unreachable

28:                                               ; preds = %21
  %29 = load ptr, ptr %3, align 8, !tbaa !4
  %30 = getelementptr inbounds nuw %struct.CTState, ptr %29, i32 0, i32 3
  %31 = load ptr, ptr %30, align 8, !tbaa !23
  %32 = load ptr, ptr %3, align 8, !tbaa !4
  %33 = getelementptr inbounds nuw %struct.CTState, ptr %32, i32 0, i32 0
  %34 = load ptr, ptr %33, align 8, !tbaa !24
  %35 = load ptr, ptr %3, align 8, !tbaa !4
  %36 = getelementptr inbounds nuw %struct.CTState, ptr %35, i32 0, i32 2
  %37 = call ptr @lj_mem_grow(ptr noundef %31, ptr noundef %34, ptr noundef %36, i32 noundef 65536, i32 noundef 24)
  %38 = load ptr, ptr %3, align 8, !tbaa !4
  %39 = getelementptr inbounds nuw %struct.CTState, ptr %38, i32 0, i32 0
  store ptr %37, ptr %39, align 8, !tbaa !24
  br label %40

40:                                               ; preds = %28, %2
  %41 = load i32, ptr %5, align 4, !tbaa !21
  %42 = add i32 %41, 1
  %43 = load ptr, ptr %3, align 8, !tbaa !4
  %44 = getelementptr inbounds nuw %struct.CTState, ptr %43, i32 0, i32 1
  store i32 %42, ptr %44, align 8, !tbaa !11
  %45 = load ptr, ptr %3, align 8, !tbaa !4
  %46 = getelementptr inbounds nuw %struct.CTState, ptr %45, i32 0, i32 0
  %47 = load ptr, ptr %46, align 8, !tbaa !24
  %48 = load i32, ptr %5, align 4, !tbaa !21
  %49 = zext i32 %48 to i64
  %50 = getelementptr inbounds nuw %struct.CType, ptr %47, i64 %49
  store ptr %50, ptr %6, align 8, !tbaa !25
  %51 = load ptr, ptr %4, align 8, !tbaa !9
  store ptr %50, ptr %51, align 8, !tbaa !25
  %52 = load ptr, ptr %6, align 8, !tbaa !25
  %53 = getelementptr inbounds nuw %struct.CType, ptr %52, i32 0, i32 0
  store i32 0, ptr %53, align 8, !tbaa !26
  %54 = load ptr, ptr %6, align 8, !tbaa !25
  %55 = getelementptr inbounds nuw %struct.CType, ptr %54, i32 0, i32 1
  store i32 0, ptr %55, align 4, !tbaa !31
  %56 = load ptr, ptr %6, align 8, !tbaa !25
  %57 = getelementptr inbounds nuw %struct.CType, ptr %56, i32 0, i32 2
  store i16 0, ptr %57, align 8, !tbaa !32
  %58 = load ptr, ptr %6, align 8, !tbaa !25
  %59 = getelementptr inbounds nuw %struct.CType, ptr %58, i32 0, i32 3
  store i16 0, ptr %59, align 2, !tbaa !33
  %60 = load ptr, ptr %6, align 8, !tbaa !25
  %61 = getelementptr inbounds nuw %struct.CType, ptr %60, i32 0, i32 4
  %62 = getelementptr inbounds nuw %struct.GCRef, ptr %61, i32 0, i32 0
  store i64 0, ptr %62, align 8, !tbaa !34
  %63 = load i32, ptr %5, align 4, !tbaa !21
  call void @llvm.lifetime.end.p0(i64 8, ptr %6) #8
  call void @llvm.lifetime.end.p0(i64 4, ptr %5) #8
  ret i32 %63
}