; Function Attrs: nounwind uwtable
define hidden range(i32 0, -1) i32 @lj_ctype_new(ptr noundef %0, ptr noundef writeonly captures(none) %1) local_unnamed_addr #0 {
  %3 = getelementptr inbounds nuw i8, ptr %0, i64 8
  %4 = load i32, ptr %3, align 8, !tbaa !4
  %5 = getelementptr inbounds nuw i8, ptr %0, i64 12
  %6 = load i32, ptr %5, align 4, !tbaa !17
  %.not = icmp ult i32 %4, %6
  br i1 %.not, label %._crit_edge, label %7, !prof !18

._crit_edge:                                      ; preds = %2
  %.pre = load ptr, ptr %0, align 8, !tbaa !19
  br label %15

7:                                                ; preds = %2
  %8 = icmp ugt i32 %4, 65535
  %9 = getelementptr inbounds nuw i8, ptr %0, i64 16
  %10 = load ptr, ptr %9, align 8, !tbaa !20
  br i1 %8, label %11, label %12

11:                                               ; preds = %7
  tail call void @lj_err_msg(ptr noundef %10, i32 noundef 139) #13
  unreachable

12:                                               ; preds = %7
  %13 = load ptr, ptr %0, align 8, !tbaa !19
  %14 = tail call ptr @lj_mem_grow(ptr noundef %10, ptr noundef %13, ptr noundef nonnull %5, i32 noundef 65536, i32 noundef 24) #14
  store ptr %14, ptr %0, align 8, !tbaa !19
  br label %15

15:                                               ; preds = %._crit_edge, %12
  %16 = phi ptr [ %.pre, %._crit_edge ], [ %14, %12 ]
  %17 = add nuw i32 %4, 1
  store i32 %17, ptr %3, align 8, !tbaa !4
  %18 = zext i32 %4 to i64
  %19 = getelementptr inbounds nuw %struct.CType, ptr %16, i64 %18
  store ptr %19, ptr %1, align 8, !tbaa !21
  %20 = getelementptr inbounds nuw i8, ptr %19, i64 16
  store i64 0, ptr %20, align 8, !tbaa !22
  tail call void @llvm.memset.p0.i64(ptr noundef nonnull align 8 dereferenceable(12) %19, i8 0, i64 12, i1 false)
  ret i32 %4
}